(lp1
V119.97.151.135:23685
p2
aV202.98.1.218:8080
p3
aV218.29.154.50:8000
p4
aV121.9.231.82:9999
p5
aV218.29.90.30:9999
p6
aV220.162.237.125:81
p7
aV124.207.82.166:8018
p8
aV122.72.56.153:80
p9
aV124.78.81.53:8080
p10
aV118.122.90.101:80
p11
aV111.47.92.226:8080
p12
aV124.225.52.14:8080
p13
aV219.150.185.121:8080
p14
aV218.9.69.2:8080
p15
aV183.207.228.59:80
p16
aV183.238.33.247:3128
p17
aV218.3.166.134:8080
p18
aV123.183.211.9:80
p19
aV113.9.163.21:8080
p20
aV218.91.206.146:8001
p21
aV122.226.122.201:8080
p22
aV123.13.227.54:9000
p23
aV117.36.50.52:3128
p24
aV218.93.112.72:3128
p25
aV219.147.19.86:9999
p26
aV120.198.230.15:80
p27
aV119.145.141.98:9999
p28
aV110.153.9.250:80
p29
aV120.237.12.220:8080
p30
aV117.59.224.62:80
p31
aV114.112.63.117:3128
p32
aV122.136.46.151:3128
p33
aV221.2.80.126:8888
p34
aV218.87.111.115:8080
p35
aV111.161.126.88:8080
p36
aV123.129.240.174:8081
p37
aV183.62.172.50:9999
p38
aV122.96.59.103:83
p39
aV106.187.38.45:3128
p40
aV183.151.143.42:8080
p41
aV116.252.253.121:8080
p42
aV120.197.85.171:11095
p43
aV182.48.107.220:9000
p44
aV117.40.160.45:3128
p45
aV125.66.140.230:8080
p46
a.