(lp1
V117.41.182.188:8080
p2
aV195.175.200.166:8080
p3
aV120.237.12.220:8080
p4
aV120.197.85.171:11095
p5
aV213.192.26.6:8080
p6
aV211.144.76.58:9000
p7
aV183.207.228.59:80
p8
aV117.59.224.62:80
p9
aV218.91.206.146:8001
p10
aV107.150.13.66:7808
p11
aV116.252.253.121:8080
p12
aV202.98.1.218:8080
p13
aV123.129.240.174:8081
p14
aV111.161.126.88:8080
p15
aV217.219.190.209:8080
p16
aV183.238.33.247:3128
p17
aV218.18.38.52:9000
p18
aV94.200.74.194:3128
p19
aV218.9.69.2:8080
p20
aV122.136.46.151:3128
p21
aV202.131.244.11:8888
p22
aV125.66.140.230:8080
p23
aV119.145.141.98:9999
p24
aV175.136.192.5:8080
p25
aV176.31.99.48:3128
p26
aV218.95.37.121:80
p27
aV176.194.189.56:8080
p28
aV120.198.230.15:80
p29
aV183.151.143.42:8080
p30
aV219.150.185.121:8080
p31
aV182.48.107.220:9000
p32
aV120.193.17.162:8888
p33
aV123.183.211.9:80
p34
aV190.122.186.197:8080
p35
aV197.210.252.44:80
p36
aV219.159.198.8:9999
p37
aV109.73.70.165:5005
p38
aV219.147.19.86:9999
p39
aV190.121.163.94:80
p40
aV190.151.10.226:8080
p41
aV122.96.59.103:83
p42
aV218.29.90.30:9999
p43
aV186.228.78.121:8080
p44
aV122.72.56.153:80
p45
aV119.97.151.135:23685
p46
aV186.69.183.131:8080
p47
aV122.227.228.118:8118
p48
aV218.93.112.72:3128
p49
aV178.18.25.85:3128
p50
aV117.36.50.52:3128
p51
aV188.237.180.55:80
p52
aV190.167.198.154:8080
p53
aV218.3.166.134:8080
p54
aV114.112.63.117:3128
p55
aV124.207.82.166:8018
p56
aV117.40.160.45:3128
p57
aV220.162.237.125:81
p58
aV110.153.9.250:80
p59
aV113.9.163.21:8080
p60
aV109.86.221.20:8080
p61
aV118.122.90.101:80
p62
aV213.181.73.145:8080
p63
aV111.47.92.226:8080
p64
aV106.187.38.45:3128
p65
aV124.78.81.53:8080
p66
aV117.36.231.239:9999
p67
aV124.225.52.14:8080
p68
aV123.13.227.54:9000
p69
aV210.211.125.25:3128
p70
aV183.62.172.50:9999
p71
aV118.69.168.7:3128
p72
aV218.87.111.115:8080
p73
aV221.2.80.126:8888
p74
aV121.9.231.82:9999
p75
aV122.226.122.201:8080
p76
aV117.211.83.18:3128
p77
aV123.52.130.52:9999
p78
a.