(lp1
V117.41.182.188:8080
p2
aV202.98.1.218:8080
p3
aV219.150.185.121:8080
p4
aV117.36.231.239:9999
p5
aV123.129.240.174:8081
p6
aV117.36.50.52:3128
p7
aV222.88.242.213:9999
p8
aV222.222.251.98:9999
p9
aV183.151.143.42:8080
p10
aV218.28.121.22:9999
p11
aV202.171.253.84:86
p12
aV221.192.134.91:8081
p13
aV221.130.162.242:8001
p14
aV218.87.111.115:8080
p15
aV112.65.19.122:8080
p16
aV222.174.27.166:8080
p17
aV121.9.231.82:9999
p18
aV218.29.154.50:8000
p19
aV218.93.112.72:3128
p20
aV120.84.232.95:8080
p21
aV218.91.206.146:8001
p22
aV120.198.230.21:80
p23
aV222.179.234.110:9999
p24
aV210.83.81.243:80
p25
aV116.252.253.121:8080
p26
aV122.72.56.153:80
p27
aV222.169.11.34:8080
p28
aV124.248.211.170:3128
p29
aV111.161.126.92:8080
p30
aV119.97.151.149:17130
p31
aV119.145.141.98:9999
p32
aV183.62.172.50:9999
p33
aV125.66.140.230:8080
p34
aV221.226.110.198:80
p35
aV211.138.121.36:81
p36
aV113.9.163.21:8080
p37
aV202.107.231.153:8088
p38
aV222.134.147.74:8080
p39
aV117.40.160.45:3128
p40
aV122.136.46.151:3128
p41
aV202.103.215.199:80
p42
aV222.180.84.61:9999
p43
aV222.243.89.147:8080
p44
aV218.3.166.134:8080
p45
aV202.99.244.209:9999
p46
aV222.180.84.34:9999
p47
aV183.238.33.247:3128
p48
aV218.9.69.2:8080
p49
aV221.210.40.150:8080
p50
aV218.95.37.121:80
p51
aV222.74.224.79:3128
p52
aV183.207.228.55:80
p53
aV121.26.229.197:8081
p54
aV122.200.90.172:3128
p55
aV218.29.74.134:8080
p56
aV218.57.110.154:8080
p57
aV218.80.215.176:8088
p58
aV124.78.81.53:8080
p59
aV119.187.148.102:8000
p60
aV222.74.98.234:8080
p61
a.